target datalayout = "e-m:e-p270:32:32-p271:32:32-p272:64:64-i64:64-i128:128-f80:128-n8:16:32:64-S128"
target triple = "x86_64-pc-linux-gnu"

%struct.Rwt_Node_t_ = type { i32, i32, i32, ptr, ptr, ptr }
%struct.Rwt_Man_t_ = type { i32, ptr, ptr, ptr, ptr, ptr, ptr, ptr, ptr, ptr, ptr, ptr, i32, i32, i32, i32, i32, ptr, ptr, ptr, ptr, ptr, ptr, ptr, i32, i32, i32, [222 x i32], i32, i32, i32, i64, i64, i64, i64, i64, i64, i64, i64 }
%struct.Vec_Ptr_t_ = type { i32, i32, ptr }
%struct.timespec = type { i64, i64 }

@.str = private unnamed_addr constant [51 x i8] c"The number of classes = %d. Canonical nodes = %d.\0A\00", align 1
@.str.1 = private unnamed_addr constant [35 x i8] c"The number of nodes loaded = %d.  \00", align 1
@.str.2 = private unnamed_addr constant [5 x i8] c"%s =\00", align 1
@.str.3 = private unnamed_addr constant [8 x i8] c"Loading\00", align 1
@.str.4 = private unnamed_addr constant [11 x i8] c"%9.2f sec\0A\00", align 1

; Function Attrs: inlinehint nounwind uwtable
define internal ptr @Vec_PtrEntry(ptr noundef %0, i32 noundef %1) #3 {
  %3 = alloca ptr, align 8
  %4 = alloca i32, align 4
  store ptr %0, ptr %3, align 8, !tbaa !36
  store i32 %1, ptr %4, align 4, !tbaa !17
  %5 = load ptr, ptr %3, align 8, !tbaa !36
  %6 = getelementptr inbounds nuw %struct.Vec_Ptr_t_, ptr %5, i32 0, i32 2
  %7 = load ptr, ptr %6, align 8, !tbaa !39
  %8 = load i32, ptr %4, align 4, !tbaa !17
  %9 = sext i32 %8 to i64
  %10 = getelementptr inbounds ptr, ptr %7, i64 %9
  %11 = load ptr, ptr %10, align 8, !tbaa !37
  ret ptr %11
}

; Function Attrs: inlinehint nounwind uwtable
define internal i32 @Vec_PtrSize(ptr noundef %0) #3 {
  %2 = alloca ptr, align 8
  store ptr %0, ptr %2, align 8, !tbaa !36
  %3 = load ptr, ptr %2, align 8, !tbaa !36
  %4 = getelementptr inbounds nuw %struct.Vec_Ptr_t_, ptr %3, i32 0, i32 1
  %5 = load i32, ptr %4, align 4, !tbaa !29
  ret i32 %5
}

; Function Attrs: nounwind uwtable
define void @Rwt_ManIncTravId(ptr noundef %0) #0 {
  %2 = alloca ptr, align 8
  %3 = alloca ptr, align 8
  %4 = alloca i32, align 4
  %5 = alloca i32, align 4
  store ptr %0, ptr %2, align 8, !tbaa !15
  call void @llvm.lifetime.start.p0(i64 8, ptr %3) #10
  call void @llvm.lifetime.start.p0(i64 4, ptr %4) #10
  %6 = load ptr, ptr %2, align 8, !tbaa !15
  %7 = getelementptr inbounds nuw %struct.Rwt_Man_t_, ptr %6, i32 0, i32 12
  %8 = load i32, ptr %7, align 8, !tbaa !48
  %9 = add nsw i32 %8, 1
  store i32 %9, ptr %7, align 8, !tbaa !48
  %10 = icmp ult i32 %8, -1879048193
  br i1 %10, label %11, label %12

11:                                               ; preds = %1
  store i32 1, ptr %5, align 4
  br label %37

12:                                               ; preds = %1
  store i32 0, ptr %4, align 4, !tbaa !17
  br label %13

13:                                               ; preds = %31, %12
  %14 = load i32, ptr %4, align 4, !tbaa !17
  %15 = load ptr, ptr %2, align 8, !tbaa !15
  %16 = getelementptr inbounds nuw %struct.Rwt_Man_t_, ptr %15, i32 0, i32 8
  %17 = load ptr, ptr %16, align 8, !tbaa !28
  %18 = call i32 @Vec_PtrSize(ptr noundef %17)
  %19 = icmp slt i32 %14, %18
  br i1 %19, label %20, label %26

20:                                               ; preds = %13
  %21 = load ptr, ptr %2, align 8, !tbaa !15
  %22 = getelementptr inbounds nuw %struct.Rwt_Man_t_, ptr %21, i32 0, i32 8
  %23 = load ptr, ptr %22, align 8, !tbaa !28
  %24 = load i32, ptr %4, align 4, !tbaa !17
  %25 = call ptr @Vec_PtrEntry(ptr noundef %23, i32 noundef %24)
  store ptr %25, ptr %3, align 8, !tbaa !8
  br label %26

26:                                               ; preds = %20, %13
  %27 = phi i1 [ false, %13 ], [ true, %20 ]
  br i1 %27, label %28, label %34

28:                                               ; preds = %26
  %29 = load ptr, ptr %3, align 8, !tbaa !8
  %30 = getelementptr inbounds nuw %struct.Rwt_Node_t_, ptr %29, i32 0, i32 1
  store i32 0, ptr %30, align 4, !tbaa !32
  br label %31

31:                                               ; preds = %28
  %32 = load i32, ptr %4, align 4, !tbaa !17
  %33 = add nsw i32 %32, 1
  store i32 %33, ptr %4, align 4, !tbaa !17
  br label %13, !llvm.loop !49

34:                                               ; preds = %26
  %35 = load ptr, ptr %2, align 8, !tbaa !15
  %36 = getelementptr inbounds nuw %struct.Rwt_Man_t_, ptr %35, i32 0, i32 12
  store i32 1, ptr %36, align 8, !tbaa !48
  store i32 0, ptr %5, align 4
  br label %37

37:                                               ; preds = %34, %11
  call void @llvm.lifetime.end.p0(i64 4, ptr %4) #10
  call void @llvm.lifetime.end.p0(i64 8, ptr %3) #10
  %38 = load i32, ptr %5, align 4
  switch i32 %38, label %40 [
    i32 0, label %39
    i32 1, label %39
  ]

39:                                               ; preds = %37, %37
  ret void

40:                                               ; preds = %37
  unreachable
}

; Function Attrs: inlinehint nounwind uwtable
define internal ptr @Rwt_NotCond(ptr noundef %0, i32 noundef %1) #3 {
  %3 = alloca ptr, align 8
  %4 = alloca i32, align 4
  store ptr %0, ptr %3, align 8, !tbaa !8
  store i32 %1, ptr %4, align 4, !tbaa !17
  %5 = load ptr, ptr %3, align 8, !tbaa !8
  %6 = ptrtoint ptr %5 to i64
  %7 = load i32, ptr %4, align 4, !tbaa !17
  %8 = sext i32 %7 to i64
  %9 = xor i64 %6, %8
  %10 = inttoptr i64 %9 to ptr
  ret ptr %10
}

; Function Attrs: nounwind uwtable
define i32 @Rwt_ManNodeVolume(ptr noundef %0, ptr noundef %1, ptr noundef %2) #0 {
  %4 = alloca ptr, align 8
  %5 = alloca ptr, align 8
  %6 = alloca ptr, align 8
  %7 = alloca i32, align 4
  store ptr %0, ptr %4, align 8, !tbaa !15
  store ptr %1, ptr %5, align 8, !tbaa !8
  store ptr %2, ptr %6, align 8, !tbaa !8
  call void @llvm.lifetime.start.p0(i64 4, ptr %7) #10
  store i32 0, ptr %7, align 4, !tbaa !17
  %8 = load ptr, ptr %4, align 8, !tbaa !15
  call void @Rwt_ManIncTravId(ptr noundef %8)
  %9 = load ptr, ptr %4, align 8, !tbaa !15
  %10 = load ptr, ptr %5, align 8, !tbaa !8
  call void @Rwt_Trav_rec(ptr noundef %9, ptr noundef %10, ptr noundef %7)
  %11 = load ptr, ptr %4, align 8, !tbaa !15
  %12 = load ptr, ptr %6, align 8, !tbaa !8
  call void @Rwt_Trav_rec(ptr noundef %11, ptr noundef %12, ptr noundef %7)
  %13 = load i32, ptr %7, align 4, !tbaa !17
  call void @llvm.lifetime.end.p0(i64 4, ptr %7) #10
  ret i32 %13
}

; Function Attrs: inlinehint nounwind uwtable
define internal i64 @Abc_Clock() #3 {
  %1 = alloca i64, align 8
  %2 = alloca %struct.timespec, align 8
  %3 = alloca i32, align 4
  %4 = alloca i64, align 8
  call void @llvm.lifetime.start.p0(i64 16, ptr %2) #10
  %5 = call i32 @clock_gettime(i32 noundef 1, ptr noundef %2) #10
  %6 = icmp slt i32 %5, 0
  br i1 %6, label %7, label %8

7:                                                ; preds = %0
  store i64 -1, ptr %1, align 8
  store i32 1, ptr %3, align 4
  br label %19

8:                                                ; preds = %0
  call void @llvm.lifetime.start.p0(i64 8, ptr %4) #10
  %9 = getelementptr inbounds nuw %struct.timespec, ptr %2, i32 0, i32 0
  %10 = load i64, ptr %9, align 8, !tbaa !57
  %11 = mul nsw i64 %10, 1000000
  store i64 %11, ptr %4, align 8, !tbaa !51
  %12 = getelementptr inbounds nuw %struct.timespec, ptr %2, i32 0, i32 1
  %13 = load i64, ptr %12, align 8, !tbaa !59
  %14 = mul nsw i64 %13, 1000000
  %15 = sdiv i64 %14, 1000000000
  %16 = load i64, ptr %4, align 8, !tbaa !51
  %17 = add nsw i64 %16, %15
  store i64 %17, ptr %4, align 8, !tbaa !51
  %18 = load i64, ptr %4, align 8, !tbaa !51
  store i64 %18, ptr %1, align 8
  store i32 1, ptr %3, align 4
  call void @llvm.lifetime.end.p0(i64 8, ptr %4) #10
  br label %19

19:                                               ; preds = %8, %7
  call void @llvm.lifetime.end.p0(i64 16, ptr %2) #10
  %20 = load i64, ptr %1, align 8
  ret i64 %20
}

; Function Attrs: nounwind uwtable
define void @Rwt_ManLoadFromArray(ptr noundef %0, i32 noundef %1) #0 {
  %3 = alloca ptr, align 8
  %4 = alloca i32, align 4
  %5 = alloca ptr, align 8
  %6 = alloca ptr, align 8
  %7 = alloca ptr, align 8
  %8 = alloca i32, align 4
  %9 = alloca i32, align 4
  %10 = alloca i32, align 4
  %11 = alloca i32, align 4
  %12 = alloca i32, align 4
  %13 = alloca i32, align 4
  %14 = alloca i32, align 4
  %15 = alloca i64, align 8
  store ptr %0, ptr %3, align 8, !tbaa !15
  store i32 %1, ptr %4, align 4, !tbaa !17
  call void @llvm.lifetime.start.p0(i64 8, ptr %5) #10
  store ptr @s_RwtAigSubgraphs, ptr %5, align 8, !tbaa !50
  call void @llvm.lifetime.start.p0(i64 8, ptr %6) #10
  call void @llvm.lifetime.start.p0(i64 8, ptr %7) #10
  call void @llvm.lifetime.start.p0(i64 4, ptr %8) #10
  call void @llvm.lifetime.start.p0(i64 4, ptr %9) #10
  call void @llvm.lifetime.start.p0(i64 4, ptr %10) #10
  call void @llvm.lifetime.start.p0(i64 4, ptr %11) #10
  call void @llvm.lifetime.start.p0(i64 4, ptr %12) #10
  call void @llvm.lifetime.start.p0(i64 4, ptr %13) #10
  call void @llvm.lifetime.start.p0(i64 4, ptr %14) #10
  call void @llvm.lifetime.start.p0(i64 8, ptr %15) #10
  %16 = call i64 @Abc_Clock()
  store i64 %16, ptr %15, align 8, !tbaa !51
  store i32 0, ptr %14, align 4, !tbaa !17
  br label %17

17:                                               ; preds = %113, %2
  %18 = load ptr, ptr %5, align 8, !tbaa !50
  %19 = load i32, ptr %14, align 4, !tbaa !17
  %20 = mul nsw i32 2, %19
  %21 = add nsw i32 %20, 0
  %22 = sext i32 %21 to i64
  %23 = getelementptr inbounds i16, ptr %18, i64 %22
  %24 = load i16, ptr %23, align 2, !tbaa !42
  %25 = zext i16 %24 to i32
  store i32 %25, ptr %8, align 4, !tbaa !17
  %26 = load ptr, ptr %5, align 8, !tbaa !50
  %27 = load i32, ptr %14, align 4, !tbaa !17
  %28 = mul nsw i32 2, %27
  %29 = add nsw i32 %28, 1
  %30 = sext i32 %29 to i64
  %31 = getelementptr inbounds i16, ptr %26, i64 %30
  %32 = load i16, ptr %31, align 2, !tbaa !42
  %33 = zext i16 %32 to i32
  store i32 %33, ptr %9, align 4, !tbaa !17
  %34 = load i32, ptr %8, align 4, !tbaa !17
  %35 = icmp eq i32 %34, 0
  br i1 %35, label %36, label %40

36:                                               ; preds = %17
  %37 = load i32, ptr %9, align 4, !tbaa !17
  %38 = icmp eq i32 %37, 0
  br i1 %38, label %39, label %40

39:                                               ; preds = %36
  br label %116

40:                                               ; preds = %36, %17
  %41 = load i32, ptr %8, align 4, !tbaa !17
  %42 = and i32 %41, 1
  store i32 %42, ptr %13, align 4, !tbaa !17
  %43 = load i32, ptr %8, align 4, !tbaa !17
  %44 = lshr i32 %43, 1
  store i32 %44, ptr %8, align 4, !tbaa !17
  %45 = load ptr, ptr %3, align 8, !tbaa !15
  %46 = getelementptr inbounds nuw %struct.Rwt_Man_t_, ptr %45, i32 0, i32 8
  %47 = load ptr, ptr %46, align 8, !tbaa !28
  %48 = getelementptr inbounds nuw %struct.Vec_Ptr_t_, ptr %47, i32 0, i32 2
  %49 = load ptr, ptr %48, align 8, !tbaa !39
  %50 = load i32, ptr %8, align 4, !tbaa !17
  %51 = lshr i32 %50, 1
  %52 = zext i32 %51 to i64
  %53 = getelementptr inbounds nuw ptr, ptr %49, i64 %52
  %54 = load ptr, ptr %53, align 8, !tbaa !37
  store ptr %54, ptr %6, align 8, !tbaa !8
  %55 = load ptr, ptr %3, align 8, !tbaa !15
  %56 = getelementptr inbounds nuw %struct.Rwt_Man_t_, ptr %55, i32 0, i32 8
  %57 = load ptr, ptr %56, align 8, !tbaa !28
  %58 = getelementptr inbounds nuw %struct.Vec_Ptr_t_, ptr %57, i32 0, i32 2
  %59 = load ptr, ptr %58, align 8, !tbaa !39
  %60 = load i32, ptr %9, align 4, !tbaa !17
  %61 = lshr i32 %60, 1
  %62 = zext i32 %61 to i64
  %63 = getelementptr inbounds nuw ptr, ptr %59, i64 %62
  %64 = load ptr, ptr %63, align 8, !tbaa !37
  store ptr %64, ptr %7, align 8, !tbaa !8
  %65 = load ptr, ptr %6, align 8, !tbaa !8
  %66 = getelementptr inbounds nuw %struct.Rwt_Node_t_, ptr %65, i32 0, i32 2
  %67 = load i32, ptr %66, align 8
  %68 = lshr i32 %67, 24
  %69 = and i32 %68, 63
  %70 = load ptr, ptr %7, align 8, !tbaa !8
  %71 = getelementptr inbounds nuw %struct.Rwt_Node_t_, ptr %70, i32 0, i32 2
  %72 = load i32, ptr %71, align 8
  %73 = lshr i32 %72, 24
  %74 = and i32 %73, 63
  %75 = icmp sgt i32 %69, %74
  br i1 %75, label %76, label %82

76:                                               ; preds = %40
  %77 = load ptr, ptr %6, align 8, !tbaa !8
  %78 = getelementptr inbounds nuw %struct.Rwt_Node_t_, ptr %77, i32 0, i32 2
  %79 = load i32, ptr %78, align 8
  %80 = lshr i32 %79, 24
  %81 = and i32 %80, 63
  br label %88

82:                                               ; preds = %40
  %83 = load ptr, ptr %7, align 8, !tbaa !8
  %84 = getelementptr inbounds nuw %struct.Rwt_Node_t_, ptr %83, i32 0, i32 2
  %85 = load i32, ptr %84, align 8
  %86 = lshr i32 %85, 24
  %87 = and i32 %86, 63
  br label %88

88:                                               ; preds = %82, %76
  %89 = phi i32 [ %81, %76 ], [ %87, %82 ]
  %90 = add nsw i32 1, %89
  store i32 %90, ptr %10, align 4, !tbaa !17
  %91 = load ptr, ptr %3, align 8, !tbaa !15
  %92 = load ptr, ptr %6, align 8, !tbaa !8
  %93 = load ptr, ptr %7, align 8, !tbaa !8
  %94 = call i32 @Rwt_ManNodeVolume(ptr noundef %91, ptr noundef %92, ptr noundef %93)
  %95 = add nsw i32 1, %94
  store i32 %95, ptr %11, align 4, !tbaa !17
  %96 = load ptr, ptr %6, align 8, !tbaa !8
  %97 = load i32, ptr %8, align 4, !tbaa !17
  %98 = and i32 %97, 1
  %99 = call ptr @Rwt_NotCond(ptr noundef %96, i32 noundef %98)
  store ptr %99, ptr %6, align 8, !tbaa !8
  %100 = load ptr, ptr %7, align 8, !tbaa !8
  %101 = load i32, ptr %9, align 4, !tbaa !17
  %102 = and i32 %101, 1
  %103 = call ptr @Rwt_NotCond(ptr noundef %100, i32 noundef %102)
  store ptr %103, ptr %7, align 8, !tbaa !8
  %104 = load ptr, ptr %3, align 8, !tbaa !15
  %105 = load ptr, ptr %6, align 8, !tbaa !8
  %106 = load ptr, ptr %7, align 8, !tbaa !8
  %107 = load i32, ptr %13, align 4, !tbaa !17
  %108 = load i32, ptr %10, align 4, !tbaa !17
  %109 = load i32, ptr %11, align 4, !tbaa !17
  %110 = load i32, ptr %13, align 4, !tbaa !17
  %111 = add nsw i32 %109, %110
  %112 = call ptr @Rwt_ManAddNode(ptr noundef %104, ptr noundef %105, ptr noundef %106, i32 noundef %107, i32 noundef %108, i32 noundef %111)
  br label %113

113:                                              ; preds = %88
  %114 = load i32, ptr %14, align 4, !tbaa !17
  %115 = add nsw i32 %114, 1
  store i32 %115, ptr %14, align 4, !tbaa !17
  br label %17

116:                                              ; preds = %39
  %117 = load i32, ptr %14, align 4, !tbaa !17
  %118 = sub nsw i32 %117, 1
  store i32 %118, ptr %12, align 4, !tbaa !17
  %119 = load i32, ptr %4, align 4, !tbaa !17
  %120 = icmp ne i32 %119, 0
  br i1 %120, label %121, label %137

121:                                              ; preds = %116
  %122 = load ptr, ptr %3, align 8, !tbaa !15
  %123 = getelementptr inbounds nuw %struct.Rwt_Man_t_, ptr %122, i32 0, i32 15
  %124 = load i32, ptr %123, align 4, !tbaa !45
  %125 = load ptr, ptr %3, align 8, !tbaa !15
  %126 = getelementptr inbounds nuw %struct.Rwt_Man_t_, ptr %125, i32 0, i32 14
  %127 = load i32, ptr %126, align 8, !tbaa !44
  %128 = call i32 (ptr, ...) @printf(ptr noundef @.str, i32 noundef %124, i32 noundef %127)
  %129 = load i32, ptr %12, align 4, !tbaa !17
  %130 = call i32 (ptr, ...) @printf(ptr noundef @.str.1, i32 noundef %129)
  call void (i32, ptr, ...) @Abc_Print(i32 noundef 1, ptr noundef @.str.2, ptr noundef @.str.3)
  %131 = call i64 @Abc_Clock()
  %132 = load i64, ptr %15, align 8, !tbaa !51
  %133 = sub nsw i64 %131, %132
  %134 = sitofp i64 %133 to double
  %135 = fmul double 1.000000e+00, %134
  %136 = fdiv double %135, 1.000000e+06
  call void (i32, ptr, ...) @Abc_Print(i32 noundef 1, ptr noundef @.str.4, double noundef %136)
  br label %137

137:                                              ; preds = %121, %116
  call void @llvm.lifetime.end.p0(i64 8, ptr %15) #10
  call void @llvm.lifetime.end.p0(i64 4, ptr %14) #10
  call void @llvm.lifetime.end.p0(i64 4, ptr %13) #10
  call void @llvm.lifetime.end.p0(i64 4, ptr %12) #10
  call void @llvm.lifetime.end.p0(i64 4, ptr %11) #10
  call void @llvm.lifetime.end.p0(i64 4, ptr %10) #10
  call void @llvm.lifetime.end.p0(i64 4, ptr %9) #10
  call void @llvm.lifetime.end.p0(i64 4, ptr %8) #10
  call void @llvm.lifetime.end.p0(i64 8, ptr %7) #10
  call void @llvm.lifetime.end.p0(i64 8, ptr %6) #10
  call void @llvm.lifetime.end.p0(i64 8, ptr %5) #10
  ret void
}