; Function Attrs: nounwind uwtable
define void @Rwt_ManLoadFromArray(ptr noundef captures(none) %0, i32 noundef %1) local_unnamed_addr #2 {
  %3 = alloca %struct.timespec, align 8
  %4 = alloca i32, align 4
  %5 = alloca %struct.timespec, align 8
  call void @llvm.lifetime.start.p0(i64 16, ptr nonnull %5) #17
  %6 = call i32 @clock_gettime(i32 noundef 1, ptr noundef nonnull %5) #17
  %7 = icmp slt i32 %6, 0
  br i1 %7, label %Abc_Clock.exit, label %8

8:                                                ; preds = %2
  %9 = load i64, ptr %5, align 8, !tbaa !44
  %.neg41 = mul i64 %9, -1000000
  %10 = getelementptr inbounds nuw i8, ptr %5, i64 8
  %11 = load i64, ptr %10, align 8, !tbaa !46
  %.neg = sdiv i64 %11, -1000
  %.neg42 = add i64 %.neg, %.neg41
  br label %Abc_Clock.exit

Abc_Clock.exit:                                   ; preds = %2, %8
  %.0.i.neg = phi i64 [ %.neg42, %8 ], [ 1, %2 ]
  call void @llvm.lifetime.end.p0(i64 16, ptr nonnull %5) #17
  %12 = getelementptr inbounds nuw i8, ptr %0, i64 64
  %13 = getelementptr inbounds nuw i8, ptr %0, i64 96
  br label %14

14:                                               ; preds = %Abc_Clock.exit, %Rwt_ManNodeVolume.exit
  %indvars.iv = phi i64 [ 0, %Abc_Clock.exit ], [ %indvars.iv.next, %Rwt_ManNodeVolume.exit ]
  %15 = phi i32 [ 2, %Abc_Clock.exit ], [ %69, %Rwt_ManNodeVolume.exit ]
  %16 = phi i16 [ 8, %Abc_Clock.exit ], [ %65, %Rwt_ManNodeVolume.exit ]
  %17 = zext i16 %16 to i32
  %18 = and i32 %17, 1
  %19 = lshr i32 %17, 1
  %20 = load ptr, ptr %12, align 8, !tbaa !22
  %21 = getelementptr inbounds nuw i8, ptr %20, i64 8
  %22 = load ptr, ptr %21, align 8, !tbaa !29
  %23 = lshr i32 %17, 2
  %24 = zext nneg i32 %23 to i64
  %25 = getelementptr inbounds nuw ptr, ptr %22, i64 %24
  %26 = load ptr, ptr %25, align 8, !tbaa !30
  %27 = lshr i32 %15, 1
  %28 = zext nneg i32 %27 to i64
  %29 = getelementptr inbounds nuw ptr, ptr %22, i64 %28
  %30 = load ptr, ptr %29, align 8, !tbaa !30
  %31 = getelementptr inbounds nuw i8, ptr %26, i64 8
  %32 = load i32, ptr %31, align 8
  %33 = lshr i32 %32, 24
  %34 = and i32 %33, 63
  %35 = getelementptr inbounds nuw i8, ptr %30, i64 8
  %36 = load i32, ptr %35, align 8
  %37 = lshr i32 %36, 24
  %38 = and i32 %37, 63
  %. = call i32 @llvm.umax.i32(i32 %34, i32 %38)
  %39 = add nuw nsw i32 %., 1
  call void @llvm.lifetime.start.p0(i64 4, ptr nonnull %4) #17
  store i32 0, ptr %4, align 4, !tbaa !42
  %40 = load i32, ptr %13, align 8, !tbaa !41
  %41 = add nsw i32 %40, 1
  store i32 %41, ptr %13, align 8, !tbaa !41
  %42 = icmp ult i32 %40, -1879048193
  br i1 %42, label %Rwt_ManNodeVolume.exit, label %.preheader.i.i

.preheader.i.i:                                   ; preds = %14
  %43 = getelementptr i8, ptr %20, i64 4
  %.val.i.i = load i32, ptr %43, align 4, !tbaa !23
  %44 = icmp sgt i32 %.val.i.i, 0
  br i1 %44, label %.lr.ph.i.i, label %.critedge.i.i

.lr.ph.i.i:                                       ; preds = %.preheader.i.i
  %wide.trip.count.i.i = zext nneg i32 %.val.i.i to i64
  br label %45

45:                                               ; preds = %45, %.lr.ph.i.i
  %indvars.iv.i.i = phi i64 [ 0, %.lr.ph.i.i ], [ %indvars.iv.next.i.i, %45 ]
  %46 = getelementptr inbounds nuw ptr, ptr %22, i64 %indvars.iv.i.i
  %47 = load ptr, ptr %46, align 8, !tbaa !30
  %48 = getelementptr inbounds nuw i8, ptr %47, i64 4
  store i32 0, ptr %48, align 4, !tbaa !27
  %indvars.iv.next.i.i = add nuw nsw i64 %indvars.iv.i.i, 1
  %exitcond.not.i.i = icmp eq i64 %indvars.iv.next.i.i, %wide.trip.count.i.i
  br i1 %exitcond.not.i.i, label %.critedge.i.i, label %45, !llvm.loop !43

.critedge.i.i:                                    ; preds = %45, %.preheader.i.i
  store i32 1, ptr %13, align 8, !tbaa !41
  br label %Rwt_ManNodeVolume.exit

Rwt_ManNodeVolume.exit:                           ; preds = %14, %.critedge.i.i
  call void @Rwt_Trav_rec(ptr noundef nonnull %0, ptr noundef %26, ptr noundef nonnull %4)
  call void @Rwt_Trav_rec(ptr noundef nonnull %0, ptr noundef %30, ptr noundef nonnull %4)
  %49 = load i32, ptr %4, align 4, !tbaa !42
  call void @llvm.lifetime.end.p0(i64 4, ptr nonnull %4) #17
  %50 = and i32 %19, 1
  %51 = ptrtoint ptr %26 to i64
  %52 = zext nneg i32 %50 to i64
  %53 = xor i64 %51, %52
  %54 = inttoptr i64 %53 to ptr
  %55 = and i32 %15, 1
  %56 = ptrtoint ptr %30 to i64
  %57 = zext nneg i32 %55 to i64
  %58 = xor i64 %56, %57
  %59 = inttoptr i64 %58 to ptr
  %60 = add nuw nsw i32 %18, 1
  %61 = add i32 %60, %49
  %62 = call ptr @Rwt_ManAddNode(ptr noundef nonnull %0, ptr noundef %54, ptr noundef %59, i32 noundef %18, i32 noundef %39, i32 noundef %61)
  %indvars.iv.next = add nuw nsw i64 %indvars.iv, 1
  %63 = shl nuw nsw i64 %indvars.iv.next, 1
  %64 = getelementptr inbounds nuw i16, ptr @s_RwtAigSubgraphs, i64 %63
  %65 = load i16, ptr %64, align 4, !tbaa !37
  %66 = or disjoint i64 %63, 1
  %67 = getelementptr inbounds nuw i16, ptr @s_RwtAigSubgraphs, i64 %66
  %68 = load i16, ptr %67, align 2, !tbaa !37
  %69 = zext i16 %68 to i32
  %70 = icmp eq i16 %65, 0
  %71 = icmp eq i16 %68, 0
  %or.cond = select i1 %70, i1 %71, i1 false
  br i1 %or.cond, label %72, label %14

72:                                               ; preds = %Rwt_ManNodeVolume.exit
  %.not = icmp eq i32 %1, 0
  br i1 %.not, label %93, label %73

73:                                               ; preds = %72
  %74 = trunc nuw nsw i64 %indvars.iv to i32
  %75 = getelementptr inbounds nuw i8, ptr %0, i64 108
  %76 = load i32, ptr %75, align 4, !tbaa !40
  %77 = getelementptr inbounds nuw i8, ptr %0, i64 104
  %78 = load i32, ptr %77, align 8, !tbaa !39
  %79 = call i32 (ptr, ...) @printf(ptr noundef nonnull dereferenceable(1) @.str, i32 noundef %76, i32 noundef %78)
  %80 = call i32 (ptr, ...) @printf(ptr noundef nonnull dereferenceable(1) @.str.1, i32 noundef %74)
  call void (i32, ptr, ...) @Abc_Print(i32 poison, ptr noundef nonnull @.str.2, ptr noundef nonnull @.str.3)
  call void @llvm.lifetime.start.p0(i64 16, ptr nonnull %3) #17
  %81 = call i32 @clock_gettime(i32 noundef 1, ptr noundef nonnull %3) #17
  %82 = icmp slt i32 %81, 0
  br i1 %82, label %Abc_Clock.exit40, label %83

83:                                               ; preds = %73
  %84 = load i64, ptr %3, align 8, !tbaa !44
  %85 = mul nsw i64 %84, 1000000
  %86 = getelementptr inbounds nuw i8, ptr %3, i64 8
  %87 = load i64, ptr %86, align 8, !tbaa !46
  %88 = sdiv i64 %87, 1000
  %89 = add nsw i64 %88, %85
  br label %Abc_Clock.exit40

Abc_Clock.exit40:                                 ; preds = %73, %83
  %.0.i39 = phi i64 [ %89, %83 ], [ -1, %73 ]
  call void @llvm.lifetime.end.p0(i64 16, ptr nonnull %3) #17
  %90 = add i64 %.0.i39, %.0.i.neg
  %91 = sitofp i64 %90 to double
  %92 = fdiv double %91, 1.000000e+06
  call void (i32, ptr, ...) @Abc_Print(i32 poison, ptr noundef nonnull @.str.4, double noundef %92)
  br label %93

93:                                               ; preds = %Abc_Clock.exit40, %72
  ret void
}